target datalayout = "e-m:e-p270:32:32-p271:32:32-p272:64:64-i64:64-i128:128-f80:128-n8:16:32:64-S128"
target triple = "x86_64-pc-linux-gnu"

%struct.FT_ListRec_ = type { ptr, ptr }
%struct.FT_CharMapRec_ = type { ptr, i32, i16, i16 }
%struct.T1_FaceRec_ = type { %struct.FT_FaceRec_, %struct.T1_FontRec_, ptr, ptr, ptr, [2 x %struct.FT_CharMapRec_], [2 x ptr], ptr, i32, i32, i32, ptr, ptr }
%struct.FT_FaceRec_ = type { i64, i64, i64, i64, i64, ptr, ptr, i32, ptr, i32, ptr, %struct.FT_Generic_, %struct.FT_BBox_, i16, i16, i16, i16, i16, i16, i16, i16, ptr, ptr, ptr, ptr, ptr, ptr, %struct.FT_ListRec_, %struct.FT_Generic_, ptr, ptr }
%struct.FT_BBox_ = type { i64, i64, i64, i64 }
%struct.FT_Generic_ = type { ptr, ptr }
%struct.T1_FontRec_ = type { %struct.PS_FontInfoRec_, %struct.PS_FontExtraRec_, %struct.PS_PrivateRec_, ptr, i32, %struct.T1_EncodingRecRec_, ptr, ptr, ptr, i32, ptr, ptr, ptr, i32, ptr, ptr, ptr, i8, i8, %struct.FT_Matrix_, %struct.FT_Vector_, %struct.FT_BBox_, i64, i64 }
%struct.PS_FontInfoRec_ = type { ptr, ptr, ptr, ptr, ptr, i64, i8, i16, i16 }
%struct.PS_FontExtraRec_ = type { i16 }
%struct.PS_PrivateRec_ = type { i32, i32, i8, i8, i8, i8, [14 x i16], [10 x i16], [14 x i16], [10 x i16], i64, i32, i32, [1 x i16], [1 x i16], i8, i8, i8, i8, [13 x i16], [13 x i16], i64, i64, i64, [2 x i16] }
%struct.T1_EncodingRecRec_ = type { i32, i32, i32, ptr, ptr }
%struct.FT_Matrix_ = type { i64, i64, i64, i64 }
%struct.FT_Vector_ = type { i64, i64 }
%struct.T1_DecoderRec_ = type { %struct.T1_BuilderRec_, [256 x i64], ptr, [17 x %struct.T1_Decoder_ZoneRec_], ptr, ptr, i32, ptr, i32, i32, ptr, ptr, ptr, %struct.FT_Matrix_, %struct.FT_Vector_, i32, i32, [7 x %struct.FT_Vector_], ptr, i32, ptr, %struct.T1_Decoder_FuncsRec_, ptr, i32, i8, %struct.FT_Generic_ }
%struct.T1_BuilderRec_ = type { ptr, ptr, ptr, ptr, ptr, ptr, i64, i64, %struct.FT_Vector_, %struct.FT_Vector_, %struct.FT_BBox_, i32, i8, i8, i8, ptr, ptr, %struct.T1_Builder_FuncsRec_ }
%struct.T1_Builder_FuncsRec_ = type { ptr, ptr, ptr, ptr, ptr, ptr, ptr, ptr }
%struct.T1_Decoder_ZoneRec_ = type { ptr, ptr, ptr }
%struct.T1_Decoder_FuncsRec_ = type { ptr, ptr, ptr, ptr }
%struct.FT_Data_ = type { ptr, i32 }
%struct.FT_Face_InternalRec_ = type { %struct.FT_Matrix_, %struct.FT_Vector_, i32, %struct.FT_ServiceCacheRec_, ptr, i8, i32, i32 }
%struct.FT_ServiceCacheRec_ = type { ptr, ptr, ptr, ptr, ptr, ptr }
%struct.FT_Incremental_InterfaceRec_ = type { ptr, ptr }
%struct.FT_Incremental_FuncsRec_ = type { ptr, ptr, ptr }

; Function Attrs: nounwind uwtable
define internal i32 @T1_Parse_Glyph(ptr noundef %0, i32 noundef %1) #0 {
  %3 = alloca ptr, align 8
  %4 = alloca i32, align 4
  %5 = alloca %struct.FT_Data_, align 8
  %6 = alloca i8, align 1
  %7 = alloca i32, align 4
  %8 = alloca ptr, align 8
  store ptr %0, ptr %3, align 8
  store i32 %1, ptr %4, align 4
  store i8 0, ptr %6, align 1
  %9 = load ptr, ptr %3, align 8
  %10 = load i32, ptr %4, align 4
  %11 = call i32 @T1_Parse_Glyph_And_Get_Char_String(ptr noundef %9, i32 noundef %10, ptr noundef %5, ptr noundef %6)
  store i32 %11, ptr %7, align 4
  %12 = load i32, ptr %7, align 4
  %13 = icmp ne i32 %12, 0
  br i1 %13, label %46, label %14

14:                                               ; preds = %2
  %15 = load ptr, ptr %3, align 8
  %16 = getelementptr inbounds %struct.T1_DecoderRec_, ptr %15, i32 0, i32 0
  %17 = getelementptr inbounds %struct.T1_BuilderRec_, ptr %16, i32 0, i32 1
  %18 = load ptr, ptr %17, align 8
  store ptr %18, ptr %8, align 8
  %19 = load ptr, ptr %8, align 8
  %20 = getelementptr inbounds %struct.T1_FaceRec_, ptr %19, i32 0, i32 0
  %21 = getelementptr inbounds %struct.FT_FaceRec_, ptr %20, i32 0, i32 30
  %22 = load ptr, ptr %21, align 8
  %23 = getelementptr inbounds %struct.FT_Face_InternalRec_, ptr %22, i32 0, i32 4
  %24 = load ptr, ptr %23, align 8
  %25 = icmp ne ptr %24, null
  br i1 %25, label %26, label %45

26:                                               ; preds = %14
  %27 = load ptr, ptr %8, align 8
  %28 = getelementptr inbounds %struct.T1_FaceRec_, ptr %27, i32 0, i32 0
  %29 = getelementptr inbounds %struct.FT_FaceRec_, ptr %28, i32 0, i32 30
  %30 = load ptr, ptr %29, align 8
  %31 = getelementptr inbounds %struct.FT_Face_InternalRec_, ptr %30, i32 0, i32 4
  %32 = load ptr, ptr %31, align 8
  %33 = getelementptr inbounds %struct.FT_Incremental_InterfaceRec_, ptr %32, i32 0, i32 0
  %34 = load ptr, ptr %33, align 8
  %35 = getelementptr inbounds %struct.FT_Incremental_FuncsRec_, ptr %34, i32 0, i32 1
  %36 = load ptr, ptr %35, align 8
  %37 = load ptr, ptr %8, align 8
  %38 = getelementptr inbounds %struct.T1_FaceRec_, ptr %37, i32 0, i32 0
  %39 = getelementptr inbounds %struct.FT_FaceRec_, ptr %38, i32 0, i32 30
  %40 = load ptr, ptr %39, align 8
  %41 = getelementptr inbounds %struct.FT_Face_InternalRec_, ptr %40, i32 0, i32 4
  %42 = load ptr, ptr %41, align 8
  %43 = getelementptr inbounds %struct.FT_Incremental_InterfaceRec_, ptr %42, i32 0, i32 1
  %44 = load ptr, ptr %43, align 8
  call void %36(ptr noundef %44, ptr noundef %5)
  br label %45

45:                                               ; preds = %26, %14
  br label %46

46:                                               ; preds = %45, %2
  %47 = load i32, ptr %7, align 4
  ret i32 %47
}