; Function Attrs: nounwind uwtable
define internal i32 @T1_Parse_Glyph(ptr noundef %0, i32 noundef %1) #2 {
  %3 = alloca %struct.FT_Data_, align 8
  %4 = alloca i8, align 1
  %5 = call fastcc i32 @T1_Parse_Glyph_And_Get_Char_String(ptr noundef %0, i32 noundef %1, ptr noundef nonnull %3, ptr noundef nonnull %4)
  %.not = icmp eq i32 %5, 0
  br i1 %.not, label %6, label %19

6:                                                ; preds = %2
  %7 = getelementptr inbounds i8, ptr %0, i64 8
  %8 = load ptr, ptr %7, align 8
  %9 = getelementptr inbounds i8, ptr %8, i64 240
  %10 = load ptr, ptr %9, align 8
  %11 = getelementptr inbounds i8, ptr %10, i64 104
  %12 = load ptr, ptr %11, align 8
  %.not7 = icmp eq ptr %12, null
  br i1 %.not7, label %19, label %13

13:                                               ; preds = %6
  %14 = load ptr, ptr %12, align 8
  %15 = getelementptr inbounds i8, ptr %14, i64 8
  %16 = load ptr, ptr %15, align 8
  %17 = getelementptr inbounds i8, ptr %12, i64 8
  %18 = load ptr, ptr %17, align 8
  call void %16(ptr noundef %18, ptr noundef nonnull %3) #16
  br label %19

19:                                               ; preds = %6, %13, %2
  ret i32 %5
}